; Function Attrs: nounwind uwtable
define internal fastcc void @arena_sdalloc_no_tcache(ptr noundef %tsdn, ptr noundef %ptr, i64 noundef %size) unnamed_addr #1 {
entry:
  %rtree_ctx_fallback.i.i = alloca %struct.rtree_ctx_s, align 8
  %tmp.i.i = alloca %struct.rtree_contents_s, align 8
  %cmp.i = icmp ult i64 %size, 4097
  br i1 %cmp.i, label %if.then.i, label %if.end.i

if.then.i:                                        ; preds = %entry
  %sub.i = add nuw nsw i64 %size, 7
  %shr.i = lshr i64 %sub.i, 3
  %arrayidx.i = getelementptr inbounds [0 x i8], ptr @sz_size2index_tab, i64 0, i64 %shr.i
  %0 = load i8, ptr %arrayidx.i, align 1
  %conv.i13 = zext i8 %0 to i32
  br label %sz_size2index.exit

if.end.i:                                         ; preds = %entry
  %cmp.i6 = icmp ugt i64 %size, 8070450532247928832
  br i1 %cmp.i6, label %if.else, label %if.end5.i

if.end5.i:                                        ; preds = %if.end.i
  %shl.i = shl nuw i64 %size, 1
  %sub.i7 = add i64 %shl.i, -1
  %1 = tail call i64 @llvm.ctlz.i64(i64 %sub.i7, i1 true), !range !5
  %2 = trunc i64 %1 to i32
  %conv1.i.i.i.i = shl nuw nsw i32 %2, 2
  %sub8.i = xor i32 %conv1.i.i.i.i, 252
  %shl9.i = add nsw i32 %sub8.i, -20
  %sub15.i = sub nuw nsw i64 60, %1
  %shl18.i = shl nsw i64 -1, %sub15.i
  %sub19.i = add nsw i64 %size, -1
  %and.i = and i64 %shl18.i, %sub19.i
  %shr.i8 = lshr i64 %and.i, %sub15.i
  %3 = trunc i64 %shr.i8 to i32
  %conv22.i = and i32 %3, 3
  %add23.i = or disjoint i32 %conv22.i, %shl9.i
  br label %sz_size2index.exit

sz_size2index.exit:                               ; preds = %if.end5.i, %if.then.i
  %retval.i.0 = phi i32 [ %conv.i13, %if.then.i ], [ %add23.i, %if.end5.i ]
  %cmp = icmp ult i32 %retval.i.0, 39
  br i1 %cmp, label %if.then, label %if.else

if.then:                                          ; preds = %sz_size2index.exit
  tail call void @arena_dalloc_small(ptr noundef %tsdn, ptr noundef %ptr) #19
  br label %if.end

if.else:                                          ; preds = %if.end.i, %sz_size2index.exit
  call void @llvm.lifetime.start.p0(i64 384, ptr nonnull %rtree_ctx_fallback.i.i)
  call void @llvm.lifetime.start.p0(i64 24, ptr nonnull %tmp.i.i)
  %cmp.i.i.i = icmp eq ptr %tsdn, null
  %4 = ptrtoint ptr %ptr to i64
  br i1 %cmp.i.i.i, label %if.then.i.i, label %if.end.i.split.i

if.then.i.i:                                      ; preds = %if.else
  call void @rtree_ctx_data_init(ptr noundef nonnull %rtree_ctx_fallback.i.i) #19
  call fastcc void @rtree_read(ptr dead_on_unwind noalias nonnull writable align 8 %tmp.i.i, ptr noundef null, ptr noundef nonnull %rtree_ctx_fallback.i.i, i64 noundef %4)
  br label %arena_dalloc_large_no_tcache.exit

if.end.i.split.i:                                 ; preds = %if.else
  %cant_access_tsd_items_directly_use_a_getter_or_setter_rtree_ctx.i.i.i = getelementptr inbounds i8, ptr %tsdn, i64 448
  call fastcc void @rtree_read(ptr dead_on_unwind noalias nonnull writable align 8 %tmp.i.i, ptr noundef nonnull %tsdn, ptr noundef nonnull %cant_access_tsd_items_directly_use_a_getter_or_setter_rtree_ctx.i.i.i, i64 noundef %4)
  br label %arena_dalloc_large_no_tcache.exit

arena_dalloc_large_no_tcache.exit:                ; preds = %if.then.i.i, %if.end.i.split.i
  %5 = load ptr, ptr %tmp.i.i, align 8
  call void @large_dalloc(ptr noundef %tsdn, ptr noundef %5) #19
  call void @llvm.lifetime.end.p0(i64 384, ptr nonnull %rtree_ctx_fallback.i.i)
  call void @llvm.lifetime.end.p0(i64 24, ptr nonnull %tmp.i.i)
  br label %if.end

if.end:                                           ; preds = %arena_dalloc_large_no_tcache.exit, %if.then
  ret void
}